target datalayout = "e-m:e-p270:32:32-p271:32:32-p272:64:64-i64:64-i128:128-f80:128-n8:16:32:64-S128"
target triple = "x86_64-pc-linux-gnu"

%struct._address = type { i32, i32, ptr, ptr }
%struct.http2_follow_tap_data = type { ptr, i64 }
%struct._follow_info = type { i32, ptr, ptr, [2 x i32], [2 x i32], [2 x ptr], i32, i32, %struct._address, %struct._address, ptr, i64 }

; Function Attrs: null_pointer_is_valid sspstrong uwtable
define internal i32 @follow_http2_tap_listener(ptr noundef %0, ptr noundef %1, ptr noundef %2, ptr noundef %3, i32 noundef %4) #1 {
  %6 = alloca i32, align 4
  %7 = alloca ptr, align 8
  %8 = alloca ptr, align 8
  %9 = alloca ptr, align 8
  %10 = alloca ptr, align 8
  %11 = alloca i32, align 4
  %12 = alloca ptr, align 8
  %13 = alloca ptr, align 8
  %14 = alloca i32, align 4
  store ptr %0, ptr %7, align 8
  store ptr %1, ptr %8, align 8
  store ptr %2, ptr %9, align 8
  store ptr %3, ptr %10, align 8
  store i32 %4, ptr %11, align 4
  call void @llvm.lifetime.start.p0(i64 8, ptr %12) #7
  %15 = load ptr, ptr %7, align 8
  store ptr %15, ptr %12, align 8
  call void @llvm.lifetime.start.p0(i64 8, ptr %13) #7
  %16 = load ptr, ptr %10, align 8
  store ptr %16, ptr %13, align 8
  %17 = load ptr, ptr %12, align 8
  %18 = getelementptr inbounds nuw %struct._follow_info, ptr %17, i32 0, i32 11
  %19 = load i64, ptr %18, align 8
  %20 = icmp ne i64 %19, -1
  br i1 %20, label %21, label %30

21:                                               ; preds = %5
  %22 = load ptr, ptr %12, align 8
  %23 = getelementptr inbounds nuw %struct._follow_info, ptr %22, i32 0, i32 11
  %24 = load i64, ptr %23, align 8
  %25 = load ptr, ptr %13, align 8
  %26 = getelementptr inbounds nuw %struct.http2_follow_tap_data, ptr %25, i32 0, i32 1
  %27 = load i64, ptr %26, align 8
  %28 = icmp ne i64 %24, %27
  br i1 %28, label %29, label %30

29:                                               ; preds = %21
  store i32 0, ptr %6, align 4
  store i32 1, ptr %14, align 4
  br label %38

30:                                               ; preds = %21, %5
  %31 = load ptr, ptr %7, align 8
  %32 = load ptr, ptr %8, align 8
  %33 = load ptr, ptr %13, align 8
  %34 = getelementptr inbounds nuw %struct.http2_follow_tap_data, ptr %33, i32 0, i32 0
  %35 = load ptr, ptr %34, align 8
  %36 = load i32, ptr %11, align 4
  %37 = call i32 @follow_tvb_tap_listener(ptr noundef %31, ptr noundef %32, ptr noundef null, ptr noundef %35, i32 noundef %36)
  store i32 %37, ptr %6, align 4
  store i32 1, ptr %14, align 4
  br label %38

38:                                               ; preds = %30, %29
  call void @llvm.lifetime.end.p0(i64 8, ptr %13) #7
  call void @llvm.lifetime.end.p0(i64 8, ptr %12) #7
  %39 = load i32, ptr %6, align 4
  ret i32 %39
}