; Function Attrs: null_pointer_is_valid sspstrong uwtable
define internal i32 @follow_http2_tap_listener(ptr noundef %0, ptr noundef %1, ptr readnone captures(none) %2, ptr noundef readonly captures(none) %3, i32 noundef %4) #1 {
  %6 = getelementptr inbounds nuw i8, ptr %0, i64 120
  %7 = load i64, ptr %6, align 8
  %.not = icmp eq i64 %7, -1
  br i1 %.not, label %11, label %8

8:                                                ; preds = %5
  %9 = getelementptr inbounds nuw i8, ptr %3, i64 8
  %10 = load i64, ptr %9, align 8
  %.not10 = icmp eq i64 %7, %10
  br i1 %.not10, label %11, label %14

11:                                               ; preds = %8, %5
  %12 = load ptr, ptr %3, align 8
  %13 = tail call i32 @follow_tvb_tap_listener(ptr noundef %0, ptr noundef %1, ptr noundef null, ptr noundef %12, i32 noundef %4)
  br label %14

14:                                               ; preds = %8, %11
  %.0 = phi i32 [ %13, %11 ], [ 0, %8 ]
  ret i32 %.0
}